target datalayout = "e-m:e-p270:32:32-p271:32:32-p272:64:64-i64:64-i128:128-f80:128-n8:16:32:64-S128"
target triple = "x86_64-pc-linux-gnu"

; Function Attrs: mustprogress uwtable
define void @_ZN7rocksdb28PartitionedFilterBlockReader12KeysMayMatchEPNS_15MultiGetContext5RangeEPNS_23BlockCacheLookupContextERKNS_11ReadOptionsE(ptr noundef nonnull align 8 dereferenceable(120) %0, ptr noundef %1, ptr noundef %2, ptr noundef nonnull align 8 dereferenceable(168) %3) unnamed_addr #6 align 2 {
  %5 = alloca ptr, align 8
  %6 = alloca ptr, align 8
  %7 = alloca ptr, align 8
  %8 = alloca ptr, align 8
  %9 = alloca { i64, i64 }, align 8
  store ptr %0, ptr %5, align 8, !tbaa !153
  store ptr %1, ptr %6, align 8, !tbaa !188
  store ptr %2, ptr %7, align 8, !tbaa !176
  store ptr %3, ptr %8, align 8, !tbaa !172
  %10 = load ptr, ptr %5, align 8
  %11 = call noundef zeroext i1 @_ZNK7rocksdb23FilterBlockReaderCommonINS_27Block_kFilterPartitionIndexEE19whole_key_filteringEv(ptr noundef nonnull align 8 dereferenceable(57) %10)
  br i1 %11, label %13, label %12

12:                                               ; preds = %4
  br label %17

13:                                               ; preds = %4
  %14 = load ptr, ptr %6, align 8, !tbaa !188
  %15 = load ptr, ptr %7, align 8, !tbaa !176
  %16 = load ptr, ptr %8, align 8, !tbaa !172
  call void @llvm.lifetime.start.p0(i64 16, ptr %9) #5
  store { i64, i64 } { i64 ptrtoint (ptr @_ZN7rocksdb21FullFilterBlockReader13KeysMayMatch2EPNS_15MultiGetContext5RangeEPKNS_14SliceTransformEPNS_23BlockCacheLookupContextERKNS_11ReadOptionsE to i64), i64 0 }, ptr %9, align 8, !tbaa !144
  call void @_ZNK7rocksdb28PartitionedFilterBlockReader8MayMatchEPNS_15MultiGetContext5RangeEPKNS_14SliceTransformEPNS_23BlockCacheLookupContextERKNS_11ReadOptionsEMNS_21FullFilterBlockReaderEFvS3_S6_S8_SB_E(ptr noundef nonnull align 8 dereferenceable(120) %10, ptr noundef %14, ptr noundef null, ptr noundef %15, ptr noundef nonnull align 8 dereferenceable(168) %16, ptr noundef byval({ i64, i64 }) align 8 %9)
  call void @llvm.lifetime.end.p0(i64 16, ptr %9) #5
  br label %17

17:                                               ; preds = %13, %12
  ret void
}