; Function Attrs: mustprogress uwtable
define void @_ZN7rocksdb28PartitionedFilterBlockReader12KeysMayMatchEPNS_15MultiGetContext5RangeEPNS_23BlockCacheLookupContextERKNS_11ReadOptionsE(ptr noundef nonnull align 8 dereferenceable(120) %0, ptr noundef captures(none) %1, ptr noundef %2, ptr noundef nonnull align 8 dereferenceable(168) %3) unnamed_addr #3 align 2 {
  %5 = alloca { i64, i64 }, align 8
  %6 = tail call noundef zeroext i1 @_ZNK7rocksdb23FilterBlockReaderCommonINS_27Block_kFilterPartitionIndexEE19whole_key_filteringEv(ptr noundef nonnull align 8 dereferenceable(57) %0)
  br i1 %6, label %7, label %8

7:                                                ; preds = %4
  call void @llvm.lifetime.start.p0(i64 16, ptr nonnull %5) #22
  store i64 ptrtoint (ptr @_ZN7rocksdb21FullFilterBlockReader13KeysMayMatch2EPNS_15MultiGetContext5RangeEPKNS_14SliceTransformEPNS_23BlockCacheLookupContextERKNS_11ReadOptionsE to i64), ptr %5, align 8, !tbaa !69
  %.fca.1.gep = getelementptr inbounds nuw i8, ptr %5, i64 8
  store i64 0, ptr %.fca.1.gep, align 8, !tbaa !69
  tail call void @_ZNK7rocksdb28PartitionedFilterBlockReader8MayMatchEPNS_15MultiGetContext5RangeEPKNS_14SliceTransformEPNS_23BlockCacheLookupContextERKNS_11ReadOptionsEMNS_21FullFilterBlockReaderEFvS3_S6_S8_SB_E(ptr noundef nonnull align 8 dereferenceable(120) %0, ptr noundef %1, ptr noundef null, ptr noundef %2, ptr noundef nonnull align 8 dereferenceable(168) %3, ptr noundef nonnull byval({ i64, i64 }) align 8 %5)
  call void @llvm.lifetime.end.p0(i64 16, ptr nonnull %5) #22
  br label %8

8:                                                ; preds = %4, %7
  ret void
}